target datalayout = "e-m:e-p270:32:32-p271:32:32-p272:64:64-i64:64-i128:128-f80:128-n8:16:32:64-S128"
target triple = "x86_64-pc-linux-gnu"

%struct.cl_stat = type { ptr, ptr, ptr, i32 }
%struct.optstruct = type { ptr, ptr, ptr, i64, i32, i32, i32, i32, ptr, ptr, ptr }
%union.pthread_attr_t = type { i64, [48 x i8] }
%struct.reload_th_t = type { ptr, ptr, i32 }

@dbstat = internal global %struct.cl_stat zeroinitializer, align 8
@.str.185 = private unnamed_addr constant [25 x i8] c"ConcurrentDatabaseReload\00", align 1
@.str.234 = private unnamed_addr constant [67 x i8] c"reload_db: Invalid arguments, unable to load signature databases.\0A\00", align 1
@.str.235 = private unnamed_addr constant [35 x i8] c"Failed to allocate reload context\0A\00", align 1
@.str.236 = private unnamed_addr constant [50 x i8] c"Can't make a copy of the current engine settings\0A\00", align 1
@.str.237 = private unnamed_addr constant [18 x i8] c"DatabaseDirectory\00", align 1
@.str.238 = private unnamed_addr constant [45 x i8] c"Can't duplicate the database directory path\0A\00", align 1
@.str.239 = private unnamed_addr constant [28 x i8] c"cl_statinidir() failed: %s\0A\00", align 1
@.str.240 = private unnamed_addr constant [41 x i8] c"Failed to init reload thread attributes\0A\00", align 1
@.str.241 = private unnamed_addr constant [44 x i8] c"Failed to release reload thread attributes\0A\00", align 1
@.str.242 = private unnamed_addr constant [31 x i8] c"Failed to spawn reload thread\0A\00", align 1
@.str.243 = private unnamed_addr constant [28 x i8] c"Database reload completed.\0A\00", align 1
@.str.244 = private unnamed_addr constant [70 x i8] c"A deadlock was detected when waiting for the database reload thread.\0A\00", align 1
@.str.245 = private unnamed_addr constant [40 x i8] c"Failed to find database reload thread.\0A\00", align 1
@.str.246 = private unnamed_addr constant [54 x i8] c"The database reload thread is not a joinable thread.\0A\00", align 1
@.str.247 = private unnamed_addr constant [75 x i8] c"An unknown error occurred when waiting for the database reload thread: %d\0A\00", align 1

; Function Attrs: nounwind uwtable
define internal i32 @reload_db(ptr noundef %0, i32 noundef %1, ptr noundef %2, ptr noundef %3) #0 {
  %5 = alloca ptr, align 8
  %6 = alloca i32, align 4
  %7 = alloca ptr, align 8
  %8 = alloca ptr, align 8
  %9 = alloca i32, align 4
  %10 = alloca i32, align 4
  %11 = alloca ptr, align 8
  %12 = alloca i64, align 8
  %13 = alloca %union.pthread_attr_t, align 8
  %14 = alloca i32, align 4
  store ptr %0, ptr %5, align 8
  store i32 %1, ptr %6, align 4
  store ptr %2, ptr %7, align 8
  store ptr %3, ptr %8, align 8
  store i32 4, ptr %9, align 4
  store ptr null, ptr %11, align 8
  %15 = load ptr, ptr %7, align 8
  %16 = icmp eq ptr null, %15
  br i1 %16, label %20, label %17

17:                                               ; preds = %4
  %18 = load ptr, ptr %5, align 8
  %19 = icmp eq ptr null, %18
  br i1 %19, label %20, label %22

20:                                               ; preds = %17, %4
  %21 = call i32 (i32, ptr, ...) @logg(i32 noundef 5, ptr noundef @.str.234)
  store i32 3, ptr %9, align 4
  br label %144

22:                                               ; preds = %17
  %23 = call noalias ptr @malloc(i64 noundef 24) #12
  store ptr %23, ptr %11, align 8
  %24 = load ptr, ptr %11, align 8
  %25 = icmp ne ptr %24, null
  br i1 %25, label %28, label %26

26:                                               ; preds = %22
  %27 = call i32 (i32, ptr, ...) @logg(i32 noundef 5, ptr noundef @.str.235)
  store i32 20, ptr %9, align 4
  br label %144

28:                                               ; preds = %22
  %29 = load ptr, ptr %11, align 8
  call void @llvm.memset.p0.i64(ptr align 8 %29, i8 0, i64 24, i1 false)
  %30 = load i32, ptr %6, align 4
  %31 = load ptr, ptr %11, align 8
  %32 = getelementptr inbounds %struct.reload_th_t, ptr %31, i32 0, i32 2
  store i32 %30, ptr %32, align 8
  %33 = load ptr, ptr %5, align 8
  %34 = load ptr, ptr %33, align 8
  %35 = icmp ne ptr %34, null
  br i1 %35, label %36, label %49

36:                                               ; preds = %28
  %37 = load ptr, ptr %5, align 8
  %38 = load ptr, ptr %37, align 8
  %39 = call ptr @cl_engine_settings_copy(ptr noundef %38)
  %40 = load ptr, ptr %11, align 8
  %41 = getelementptr inbounds %struct.reload_th_t, ptr %40, i32 0, i32 0
  store ptr %39, ptr %41, align 8
  %42 = load ptr, ptr %11, align 8
  %43 = getelementptr inbounds %struct.reload_th_t, ptr %42, i32 0, i32 0
  %44 = load ptr, ptr %43, align 8
  %45 = icmp ne ptr %44, null
  br i1 %45, label %48, label %46

46:                                               ; preds = %36
  %47 = call i32 (i32, ptr, ...) @logg(i32 noundef 5, ptr noundef @.str.236)
  br label %144

48:                                               ; preds = %36
  br label %49

49:                                               ; preds = %48, %28
  %50 = load ptr, ptr %7, align 8
  %51 = call ptr @optget(ptr noundef %50, ptr noundef @.str.237)
  %52 = getelementptr inbounds %struct.optstruct, ptr %51, i32 0, i32 2
  %53 = load ptr, ptr %52, align 8
  %54 = call noalias ptr @strdup(ptr noundef %53) #9
  %55 = load ptr, ptr %11, align 8
  %56 = getelementptr inbounds %struct.reload_th_t, ptr %55, i32 0, i32 1
  store ptr %54, ptr %56, align 8
  %57 = load ptr, ptr %11, align 8
  %58 = getelementptr inbounds %struct.reload_th_t, ptr %57, i32 0, i32 1
  %59 = load ptr, ptr %58, align 8
  %60 = icmp ne ptr %59, null
  br i1 %60, label %63, label %61

61:                                               ; preds = %49
  %62 = call i32 (i32, ptr, ...) @logg(i32 noundef 5, ptr noundef @.str.238)
  br label %144

63:                                               ; preds = %49
  %64 = load i32, ptr getelementptr inbounds (%struct.cl_stat, ptr @dbstat, i32 0, i32 3), align 8
  %65 = icmp ne i32 %64, 0
  br i1 %65, label %66, label %68

66:                                               ; preds = %63
  %67 = call i32 @cl_statfree(ptr noundef @dbstat)
  br label %68

68:                                               ; preds = %66, %63
  call void @llvm.memset.p0.i64(ptr align 8 @dbstat, i8 0, i64 32, i1 false)
  %69 = load ptr, ptr %11, align 8
  %70 = getelementptr inbounds %struct.reload_th_t, ptr %69, i32 0, i32 1
  %71 = load ptr, ptr %70, align 8
  %72 = call i32 @cl_statinidir(ptr noundef %71, ptr noundef @dbstat)
  store i32 %72, ptr %10, align 4
  %73 = load i32, ptr %10, align 4
  %74 = icmp ne i32 0, %73
  br i1 %74, label %75, label %79

75:                                               ; preds = %68
  %76 = load i32, ptr %10, align 4
  %77 = call ptr @cl_strerror(i32 noundef %76)
  %78 = call i32 (i32, ptr, ...) @logg(i32 noundef 5, ptr noundef @.str.239, ptr noundef %77)
  br label %144

79:                                               ; preds = %68
  %80 = load ptr, ptr %5, align 8
  %81 = load ptr, ptr %80, align 8
  %82 = icmp ne ptr %81, null
  br i1 %82, label %83, label %96

83:                                               ; preds = %79
  %84 = load ptr, ptr %7, align 8
  %85 = call ptr @optget(ptr noundef %84, ptr noundef @.str.185)
  %86 = getelementptr inbounds %struct.optstruct, ptr %85, i32 0, i32 4
  %87 = load i32, ptr %86, align 8
  %88 = icmp ne i32 %87, 0
  br i1 %88, label %95, label %89

89:                                               ; preds = %83
  call void @thrmgr_setactiveengine(ptr noundef null)
  %90 = load ptr, ptr %5, align 8
  %91 = load ptr, ptr %90, align 8
  %92 = call i32 @cl_engine_free(ptr noundef %91)
  %93 = load ptr, ptr %5, align 8
  store ptr null, ptr %93, align 8
  %94 = load ptr, ptr %8, align 8
  call void @thrmgr_wait_for_threads(ptr noundef %94)
  br label %95

95:                                               ; preds = %89, %83
  br label %96

96:                                               ; preds = %95, %79
  %97 = call i32 @pthread_attr_init(ptr noundef %13) #9
  %98 = icmp ne i32 %97, 0
  br i1 %98, label %99, label %101

99:                                               ; preds = %96
  %100 = call i32 (i32, ptr, ...) @logg(i32 noundef 5, ptr noundef @.str.240)
  br label %144

101:                                              ; preds = %96
  %102 = load ptr, ptr %7, align 8
  %103 = call ptr @optget(ptr noundef %102, ptr noundef @.str.185)
  %104 = getelementptr inbounds %struct.optstruct, ptr %103, i32 0, i32 4
  %105 = load i32, ptr %104, align 8
  %106 = icmp ne i32 %105, 0
  br i1 %106, label %107, label %109

107:                                              ; preds = %101
  %108 = call i32 @pthread_attr_setdetachstate(ptr noundef %13, i32 noundef 1) #9
  br label %109

109:                                              ; preds = %107, %101
  %110 = load ptr, ptr %11, align 8
  %111 = call i32 @pthread_create(ptr noundef %12, ptr noundef %13, ptr noundef @reload_th, ptr noundef %110) #9
  store i32 %111, ptr %10, align 4
  %112 = call i32 @pthread_attr_destroy(ptr noundef %13) #9
  %113 = icmp ne i32 %112, 0
  br i1 %113, label %114, label %116

114:                                              ; preds = %109
  %115 = call i32 (i32, ptr, ...) @logg(i32 noundef 4, ptr noundef @.str.241)
  br label %116

116:                                              ; preds = %114, %109
  %117 = load i32, ptr %10, align 4
  %118 = icmp ne i32 %117, 0
  br i1 %118, label %119, label %121

119:                                              ; preds = %116
  %120 = call i32 (i32, ptr, ...) @logg(i32 noundef 5, ptr noundef @.str.242)
  br label %144

121:                                              ; preds = %116
  %122 = load ptr, ptr %7, align 8
  %123 = call ptr @optget(ptr noundef %122, ptr noundef @.str.185)
  %124 = getelementptr inbounds %struct.optstruct, ptr %123, i32 0, i32 4
  %125 = load i32, ptr %124, align 8
  %126 = icmp ne i32 %125, 0
  br i1 %126, label %143, label %127

127:                                              ; preds = %121
  %128 = load i64, ptr %12, align 8
  %129 = call i32 @pthread_join(i64 noundef %128, ptr noundef null)
  store i32 %129, ptr %14, align 4
  %130 = load i32, ptr %14, align 4
  switch i32 %130, label %139 [
    i32 0, label %131
    i32 35, label %133
    i32 3, label %135
    i32 22, label %137
  ]

131:                                              ; preds = %127
  %132 = call i32 (i32, ptr, ...) @logg(i32 noundef 0, ptr noundef @.str.243)
  br label %142

133:                                              ; preds = %127
  %134 = call i32 (i32, ptr, ...) @logg(i32 noundef 5, ptr noundef @.str.244)
  br label %144

135:                                              ; preds = %127
  %136 = call i32 (i32, ptr, ...) @logg(i32 noundef 5, ptr noundef @.str.245)
  br label %144

137:                                              ; preds = %127
  %138 = call i32 (i32, ptr, ...) @logg(i32 noundef 5, ptr noundef @.str.246)
  br label %144

139:                                              ; preds = %127
  %140 = load i32, ptr %14, align 4
  %141 = call i32 (i32, ptr, ...) @logg(i32 noundef 5, ptr noundef @.str.247, i32 noundef %140)
  br label %144

142:                                              ; preds = %131
  br label %143

143:                                              ; preds = %142, %121
  store i32 0, ptr %9, align 4
  br label %144

144:                                              ; preds = %143, %139, %137, %135, %133, %119, %99, %75, %61, %46, %26, %20
  %145 = load i32, ptr %9, align 4
  %146 = icmp ne i32 0, %145
  br i1 %146, label %147, label %172

147:                                              ; preds = %144
  %148 = load ptr, ptr %11, align 8
  %149 = icmp ne ptr null, %148
  br i1 %149, label %150, label %171

150:                                              ; preds = %147
  %151 = load ptr, ptr %11, align 8
  %152 = getelementptr inbounds %struct.reload_th_t, ptr %151, i32 0, i32 0
  %153 = load ptr, ptr %152, align 8
  %154 = icmp ne ptr null, %153
  br i1 %154, label %155, label %160

155:                                              ; preds = %150
  %156 = load ptr, ptr %11, align 8
  %157 = getelementptr inbounds %struct.reload_th_t, ptr %156, i32 0, i32 0
  %158 = load ptr, ptr %157, align 8
  %159 = call i32 @cl_engine_settings_free(ptr noundef %158)
  br label %160

160:                                              ; preds = %155, %150
  %161 = load ptr, ptr %11, align 8
  %162 = getelementptr inbounds %struct.reload_th_t, ptr %161, i32 0, i32 1
  %163 = load ptr, ptr %162, align 8
  %164 = icmp ne ptr null, %163
  br i1 %164, label %165, label %169

165:                                              ; preds = %160
  %166 = load ptr, ptr %11, align 8
  %167 = getelementptr inbounds %struct.reload_th_t, ptr %166, i32 0, i32 1
  %168 = load ptr, ptr %167, align 8
  call void @free(ptr noundef %168) #9
  br label %169

169:                                              ; preds = %165, %160
  %170 = load ptr, ptr %11, align 8
  call void @free(ptr noundef %170) #9
  br label %171

171:                                              ; preds = %169, %147
  br label %172

172:                                              ; preds = %171, %144
  %173 = load i32, ptr %9, align 4
  ret i32 %173
}