; Function Attrs: nounwind uwtable
define internal fastcc noundef i32 @reload_db(ptr noundef %0, i32 noundef %1, ptr noundef %2, ptr noundef %3) unnamed_addr #0 {
  %5 = alloca i64, align 8
  %6 = alloca %union.pthread_attr_t, align 8
  %7 = icmp eq ptr %2, null
  %8 = icmp eq ptr %0, null
  %or.cond = or i1 %8, %7
  br i1 %or.cond, label %9, label %11

9:                                                ; preds = %4
  %10 = tail call i32 (i32, ptr, ...) @logg(i32 noundef 5, ptr noundef nonnull @.str.234) #15
  br label %.thread

11:                                               ; preds = %4
  %calloc = tail call dereferenceable_or_null(24) ptr @calloc(i64 1, i64 24)
  %.not = icmp eq ptr %calloc, null
  br i1 %.not, label %12, label %14

12:                                               ; preds = %11
  %13 = tail call i32 (i32, ptr, ...) @logg(i32 noundef 5, ptr noundef nonnull @.str.235) #15
  br label %.thread

14:                                               ; preds = %11
  %15 = getelementptr inbounds i8, ptr %calloc, i64 16
  store i32 %1, ptr %15, align 8
  %16 = load ptr, ptr %0, align 8
  %.not45 = icmp eq ptr %16, null
  br i1 %.not45, label %21, label %17

17:                                               ; preds = %14
  %18 = tail call ptr @cl_engine_settings_copy(ptr noundef nonnull %16) #15
  store ptr %18, ptr %calloc, align 8
  %.not46 = icmp eq ptr %18, null
  br i1 %.not46, label %19, label %21

19:                                               ; preds = %17
  %20 = tail call i32 (i32, ptr, ...) @logg(i32 noundef 5, ptr noundef nonnull @.str.236) #15
  br label %82

21:                                               ; preds = %17, %14
  %22 = tail call ptr @optget(ptr noundef nonnull %2, ptr noundef nonnull @.str.237) #15
  %23 = getelementptr inbounds i8, ptr %22, i64 16
  %24 = load ptr, ptr %23, align 8
  %25 = tail call noalias ptr @strdup(ptr noundef %24) #15
  %26 = getelementptr inbounds i8, ptr %calloc, i64 8
  store ptr %25, ptr %26, align 8
  %.not47 = icmp eq ptr %25, null
  br i1 %.not47, label %27, label %29

27:                                               ; preds = %21
  %28 = tail call i32 (i32, ptr, ...) @logg(i32 noundef 5, ptr noundef nonnull @.str.238) #15
  br label %82

29:                                               ; preds = %21
  %30 = load i32, ptr getelementptr inbounds (%struct.cl_stat, ptr @dbstat, i64 0, i32 3), align 8
  %.not48 = icmp eq i32 %30, 0
  br i1 %.not48, label %33, label %31

31:                                               ; preds = %29
  %32 = tail call i32 @cl_statfree(ptr noundef nonnull @dbstat) #15
  br label %33

33:                                               ; preds = %31, %29
  tail call void @llvm.memset.p0.i64(ptr noundef nonnull align 8 dereferenceable(32) @dbstat, i8 0, i64 32, i1 false)
  %34 = tail call i32 @cl_statinidir(ptr noundef nonnull %25, ptr noundef nonnull @dbstat) #15
  %.not49 = icmp eq i32 %34, 0
  br i1 %.not49, label %38, label %35

35:                                               ; preds = %33
  %36 = tail call ptr @cl_strerror(i32 noundef %34) #15
  %37 = tail call i32 (i32, ptr, ...) @logg(i32 noundef 5, ptr noundef nonnull @.str.239, ptr noundef %36) #15
  br label %82

38:                                               ; preds = %33
  %39 = load ptr, ptr %0, align 8
  %.not50 = icmp eq ptr %39, null
  br i1 %.not50, label %47, label %40

40:                                               ; preds = %38
  %41 = tail call ptr @optget(ptr noundef nonnull %2, ptr noundef nonnull @.str.185) #15
  %42 = getelementptr inbounds i8, ptr %41, i64 32
  %43 = load i32, ptr %42, align 8
  %.not51 = icmp eq i32 %43, 0
  br i1 %.not51, label %44, label %47

44:                                               ; preds = %40
  tail call void @thrmgr_setactiveengine(ptr noundef null) #15
  %45 = load ptr, ptr %0, align 8
  %46 = tail call i32 @cl_engine_free(ptr noundef %45) #15
  store ptr null, ptr %0, align 8
  tail call void @thrmgr_wait_for_threads(ptr noundef %3) #15
  br label %47

47:                                               ; preds = %40, %44, %38
  %48 = call i32 @pthread_attr_init(ptr noundef nonnull %6) #15
  %.not52 = icmp eq i32 %48, 0
  br i1 %.not52, label %51, label %49

49:                                               ; preds = %47
  %50 = call i32 (i32, ptr, ...) @logg(i32 noundef 5, ptr noundef nonnull @.str.240) #15
  br label %82

51:                                               ; preds = %47
  %52 = call ptr @optget(ptr noundef nonnull %2, ptr noundef nonnull @.str.185) #15
  %53 = getelementptr inbounds i8, ptr %52, i64 32
  %54 = load i32, ptr %53, align 8
  %.not53 = icmp eq i32 %54, 0
  br i1 %.not53, label %57, label %55

55:                                               ; preds = %51
  %56 = call i32 @pthread_attr_setdetachstate(ptr noundef nonnull %6, i32 noundef 1) #15
  br label %57

57:                                               ; preds = %55, %51
  %58 = call i32 @pthread_create(ptr noundef nonnull %5, ptr noundef nonnull %6, ptr noundef nonnull @reload_th, ptr noundef nonnull %calloc) #15
  %59 = call i32 @pthread_attr_destroy(ptr noundef nonnull %6) #15
  %.not54 = icmp eq i32 %59, 0
  br i1 %.not54, label %62, label %60

60:                                               ; preds = %57
  %61 = call i32 (i32, ptr, ...) @logg(i32 noundef 4, ptr noundef nonnull @.str.241) #15
  br label %62

62:                                               ; preds = %60, %57
  %.not55 = icmp eq i32 %58, 0
  br i1 %.not55, label %65, label %63

63:                                               ; preds = %62
  %64 = call i32 (i32, ptr, ...) @logg(i32 noundef 5, ptr noundef nonnull @.str.242) #15
  br label %82

65:                                               ; preds = %62
  %66 = call ptr @optget(ptr noundef nonnull %2, ptr noundef nonnull @.str.185) #15
  %67 = getelementptr inbounds i8, ptr %66, i64 32
  %68 = load i32, ptr %67, align 8
  %.not56 = icmp eq i32 %68, 0
  br i1 %.not56, label %69, label %.thread

69:                                               ; preds = %65
  %70 = load i64, ptr %5, align 8
  %71 = call i32 @pthread_join(i64 noundef %70, ptr noundef null) #15
  switch i32 %71, label %80 [
    i32 0, label %72
    i32 35, label %74
    i32 3, label %76
    i32 22, label %78
  ]

72:                                               ; preds = %69
  %73 = call i32 (i32, ptr, ...) @logg(i32 noundef 0, ptr noundef nonnull @.str.243) #15
  br label %.thread

74:                                               ; preds = %69
  %75 = call i32 (i32, ptr, ...) @logg(i32 noundef 5, ptr noundef nonnull @.str.244) #15
  br label %82

76:                                               ; preds = %69
  %77 = call i32 (i32, ptr, ...) @logg(i32 noundef 5, ptr noundef nonnull @.str.245) #15
  br label %82

78:                                               ; preds = %69
  %79 = call i32 (i32, ptr, ...) @logg(i32 noundef 5, ptr noundef nonnull @.str.246) #15
  br label %82

80:                                               ; preds = %69
  %81 = call i32 (i32, ptr, ...) @logg(i32 noundef 5, ptr noundef nonnull @.str.247, i32 noundef %71) #15
  br label %82

82:                                               ; preds = %19, %27, %35, %49, %63, %74, %76, %78, %80
  %83 = load ptr, ptr %calloc, align 8
  %.not57 = icmp eq ptr %83, null
  br i1 %.not57, label %86, label %84

84:                                               ; preds = %82
  %85 = call i32 @cl_engine_settings_free(ptr noundef nonnull %83) #15
  br label %86

86:                                               ; preds = %84, %82
  %87 = getelementptr inbounds i8, ptr %calloc, i64 8
  %88 = load ptr, ptr %87, align 8
  %.not58 = icmp eq ptr %88, null
  br i1 %.not58, label %90, label %89

89:                                               ; preds = %86
  call void @free(ptr noundef nonnull %88) #15
  br label %90

90:                                               ; preds = %89, %86
  call void @free(ptr noundef nonnull %calloc) #15
  br label %.thread

.thread:                                          ; preds = %12, %9, %65, %72, %90
  %.062 = phi i32 [ 4, %90 ], [ 0, %65 ], [ 0, %72 ], [ 20, %12 ], [ 3, %9 ]
  ret i32 %.062
}